ARM GAS  C:\Users\SLYBOO~1\AppData\Local\Temp\ccqdk59A.s 			page 1


   1              		.cpu arm7tdmi
   2              		.arch armv4t
   3              		.fpu softvfp
   4              		.eabi_attribute 20, 1
   5              		.eabi_attribute 21, 1
   6              		.eabi_attribute 23, 3
   7              		.eabi_attribute 24, 1
   8              		.eabi_attribute 25, 1
   9              		.eabi_attribute 26, 1
  10              		.eabi_attribute 30, 6
  11              		.eabi_attribute 34, 0
  12              		.eabi_attribute 18, 4
  13              		.file	"add.c"
  14              		.text
  15              	.Ltext0:
  16              		.cfi_sections	.debug_frame
  17              		.align	2
  18              		.global	add
  19              		.syntax unified
  20              		.arm
  21              		.type	add, %function
  22              	add:
  23              	.LFB0:
  24              		.file 1 "add.c"
   1:add.c         **** int add (int a, int b){
  25              		.loc 1 1 23
  26              		.cfi_startproc
  27              		@ Function supports interworking.
  28              		@ args = 0, pretend = 0, frame = 16
  29              		@ frame_needed = 1, uses_anonymous_args = 0
  30 0000 0DC0A0E1 		mov	ip, sp
  31              	.LCFI0:
  32              		.cfi_def_cfa_register 12
  33 0004 00D82DE9 		push	{fp, ip, lr, pc}
  34              		.cfi_offset 11, -16
  35              		.cfi_offset 13, -12
  36              		.cfi_offset 14, -8
  37 0008 04B04CE2 		sub	fp, ip, #4
  38              	.LCFI1:
  39              		.cfi_def_cfa 11, 4
  40 000c 10D04DE2 		sub	sp, sp, #16
  41 0010 18000BE5 		str	r0, [fp, #-24]
  42 0014 1C100BE5 		str	r1, [fp, #-28]
   2:add.c         **** 	int c;
   3:add.c         **** 	asm(
  43              		.loc 1 3 2
  44 0018 18301BE5 		ldr	r3, [fp, #-24]
  45 001c 1C201BE5 		ldr	r2, [fp, #-28]
  46              		.syntax divided
  47              	@ 3 "add.c" 1
  48 0020 020083E0 		add r0,r3,r2
  49 0024 0030A0E1 	mov r3,r0
  50              	
  51              	@ 0 "" 2
  52              		.arm
  53              		.syntax unified
  54 0028 10300BE5 		str	r3, [fp, #-16]
ARM GAS  C:\Users\SLYBOO~1\AppData\Local\Temp\ccqdk59A.s 			page 2


   4:add.c         **** 		"add r0,%1,%2\n"
   5:add.c         **** 		"mov %0,r0\n"
   6:add.c         **** 		:"=r"(c)
   7:add.c         **** 		:"r"(a),"r"(b)
   8:add.c         **** 		:"r0"
   9:add.c         **** 	);
  10:add.c         **** 	return c;
  55              		.loc 1 10 9
  56 002c 10301BE5 		ldr	r3, [fp, #-16]
  11:add.c         **** }...
  57              		.loc 1 11 1
  58 0030 0300A0E1 		mov	r0, r3
  59 0034 0CD04BE2 		sub	sp, fp, #12
  60              	.LCFI2:
  61              		.cfi_def_cfa 13, 16
  62 0038 00689DE8 		ldm	sp, {fp, sp, lr}
  63              	.LCFI3:
  64              		.cfi_restore 14
  65              		.cfi_restore 13
  66              		.cfi_restore 11
  67              		.cfi_def_cfa_offset 4
  68 003c 1EFF2FE1 		bx	lr
  69              		.cfi_endproc
  70              	.LFE0:
  71              		.size	add, .-add
  72              	.Letext0: